target datalayout = "e-m:e-p270:32:32-p271:32:32-p272:64:64-i64:64-i128:128-f80:128-n8:16:32:64-S128"
target triple = "x86_64-pc-linux-gnu"

%struct.pg_conn = type { ptr, ptr, ptr, ptr, ptr, ptr, ptr, ptr, ptr, ptr, ptr, ptr, ptr, ptr, ptr, ptr, ptr, ptr, ptr, ptr, ptr, ptr, ptr, ptr, ptr, ptr, ptr, ptr, ptr, ptr, ptr, ptr, ptr, ptr, ptr, ptr, ptr, ptr, ptr, ptr, ptr, ptr, ptr, i8, ptr, i32, %struct.PGNoticeHooks, ptr, i32, i32, i32, i32, i32, [6 x i8], i8, i8, i32, i8, i8, i32, i8, i32, ptr, ptr, i32, i32, ptr, ptr, ptr, ptr, ptr, i32, %struct.SockAddr, %struct.SockAddr, i32, i32, i8, i8, i8, i8, i8, i8, ptr, i8, i32, [1 x ptr], i8, i8, ptr, ptr, i32, i32, i32, i8, i8, i32, i32, ptr, i8, i64, ptr, i64, ptr, i32, i32, ptr, i32, i8, i32, i32, i32, i32, ptr, %struct.pg_prng_state, ptr, i32, i32, i32, i32, ptr, i32, i32, i32, i32, ptr, i32, ptr, i8, ptr, ptr, ptr, i32, i8, i8, i8, i8, i8, i8, i8, i8, %struct.PQExpBufferData, i32, %struct.PQExpBufferData }
%struct.PGNoticeHooks = type { ptr, ptr, ptr, ptr }
%struct.SockAddr = type { %struct.sockaddr_storage, i32 }
%struct.sockaddr_storage = type { i16, [118 x i8], i64 }
%struct.pg_prng_state = type { i64, i64 }
%struct.PQExpBufferData = type { ptr, i64, i64 }

@.str.6 = private unnamed_addr constant [16 x i8] c"timeout expired\00", align 1
@.str.8 = private unnamed_addr constant [21 x i8] c"connection not open\0A\00", align 1

; Function Attrs: nounwind uwtable
define i32 @pqWaitTimed(i32 noundef %0, i32 noundef %1, ptr noundef %2, i64 noundef %3) #0 {
  %5 = alloca i32, align 4
  %6 = alloca i32, align 4
  %7 = alloca i32, align 4
  %8 = alloca ptr, align 8
  %9 = alloca i64, align 8
  %10 = alloca i32, align 4
  %11 = alloca i32, align 4
  store i32 %0, ptr %6, align 4
  store i32 %1, ptr %7, align 4
  store ptr %2, ptr %8, align 8
  store i64 %3, ptr %9, align 8
  call void @llvm.lifetime.start.p0(i64 4, ptr %10) #10
  %12 = load ptr, ptr %8, align 8
  %13 = load i32, ptr %6, align 4
  %14 = load i32, ptr %7, align 4
  %15 = load i64, ptr %9, align 8
  %16 = call i32 @pqSocketCheck(ptr noundef %12, i32 noundef %13, i32 noundef %14, i64 noundef %15)
  store i32 %16, ptr %10, align 4
  %17 = load i32, ptr %10, align 4
  %18 = icmp slt i32 %17, 0
  br i1 %18, label %19, label %20

19:                                               ; preds = %4
  store i32 -1, ptr %5, align 4
  store i32 1, ptr %11, align 4
  br label %26

20:                                               ; preds = %4
  %21 = load i32, ptr %10, align 4
  %22 = icmp eq i32 %21, 0
  br i1 %22, label %23, label %25

23:                                               ; preds = %20
  %24 = load ptr, ptr %8, align 8
  call void (ptr, ptr, ...) @libpq_append_conn_error(ptr noundef %24, ptr noundef @.str.6)
  store i32 1, ptr %5, align 4
  store i32 1, ptr %11, align 4
  br label %26

25:                                               ; preds = %20
  store i32 0, ptr %5, align 4
  store i32 1, ptr %11, align 4
  br label %26

26:                                               ; preds = %25, %23, %19
  call void @llvm.lifetime.end.p0(i64 4, ptr %10) #10
  %27 = load i32, ptr %5, align 4
  ret i32 %27
}

; Function Attrs: nounwind uwtable
define i32 @pqWait(i32 noundef %0, i32 noundef %1, ptr noundef %2) #0 {
  %4 = alloca i32, align 4
  %5 = alloca i32, align 4
  %6 = alloca ptr, align 8
  store i32 %0, ptr %4, align 4
  store i32 %1, ptr %5, align 4
  store ptr %2, ptr %6, align 8
  %7 = load i32, ptr %4, align 4
  %8 = load i32, ptr %5, align 4
  %9 = load ptr, ptr %6, align 8
  %10 = call i32 @pqWaitTimed(i32 noundef %7, i32 noundef %8, ptr noundef %9, i64 noundef -1)
  ret i32 %10
}

; Function Attrs: nounwind uwtable
define internal i32 @pqSendSome(ptr noundef %0, i32 noundef %1) #0 {
  %3 = alloca i32, align 4
  %4 = alloca ptr, align 8
  %5 = alloca i32, align 4
  %6 = alloca ptr, align 8
  %7 = alloca i32, align 4
  %8 = alloca i32, align 4
  %9 = alloca i32, align 4
  %10 = alloca i32, align 4
  store ptr %0, ptr %4, align 8
  store i32 %1, ptr %5, align 4
  call void @llvm.lifetime.start.p0(i64 8, ptr %6) #10
  %11 = load ptr, ptr %4, align 8
  %12 = getelementptr inbounds nuw %struct.pg_conn, ptr %11, i32 0, i32 119
  %13 = load ptr, ptr %12, align 8
  store ptr %13, ptr %6, align 8
  call void @llvm.lifetime.start.p0(i64 4, ptr %7) #10
  %14 = load ptr, ptr %4, align 8
  %15 = getelementptr inbounds nuw %struct.pg_conn, ptr %14, i32 0, i32 121
  %16 = load i32, ptr %15, align 4
  store i32 %16, ptr %7, align 4
  call void @llvm.lifetime.start.p0(i64 4, ptr %8) #10
  store i32 0, ptr %8, align 4
  %17 = load ptr, ptr %4, align 8
  %18 = getelementptr inbounds nuw %struct.pg_conn, ptr %17, i32 0, i32 81
  %19 = load i8, ptr %18, align 1, !range !5, !noundef !6
  %20 = trunc i8 %19 to i1
  br i1 %20, label %21, label %35

21:                                               ; preds = %2
  %22 = load ptr, ptr %4, align 8
  %23 = getelementptr inbounds nuw %struct.pg_conn, ptr %22, i32 0, i32 121
  store i32 0, ptr %23, align 4
  %24 = load ptr, ptr %4, align 8
  %25 = getelementptr inbounds nuw %struct.pg_conn, ptr %24, i32 0, i32 71
  %26 = load i32, ptr %25, align 8
  %27 = icmp ne i32 %26, -1
  br i1 %27, label %28, label %34

28:                                               ; preds = %21
  %29 = load ptr, ptr %4, align 8
  %30 = call i32 @pqReadData(ptr noundef %29)
  %31 = icmp slt i32 %30, 0
  br i1 %31, label %32, label %33

32:                                               ; preds = %28
  store i32 -1, ptr %3, align 4
  store i32 1, ptr %9, align 4
  br label %136

33:                                               ; preds = %28
  br label %34

34:                                               ; preds = %33, %21
  store i32 0, ptr %3, align 4
  store i32 1, ptr %9, align 4
  br label %136

35:                                               ; preds = %2
  %36 = load ptr, ptr %4, align 8
  %37 = getelementptr inbounds nuw %struct.pg_conn, ptr %36, i32 0, i32 71
  %38 = load i32, ptr %37, align 8
  %39 = icmp eq i32 %38, -1
  br i1 %39, label %40, label %48

40:                                               ; preds = %35
  %41 = load ptr, ptr %4, align 8
  %42 = getelementptr inbounds nuw %struct.pg_conn, ptr %41, i32 0, i32 81
  store i8 1, ptr %42, align 1
  %43 = call noalias ptr @strdup(ptr noundef @.str.8) #10
  %44 = load ptr, ptr %4, align 8
  %45 = getelementptr inbounds nuw %struct.pg_conn, ptr %44, i32 0, i32 82
  store ptr %43, ptr %45, align 8
  %46 = load ptr, ptr %4, align 8
  %47 = getelementptr inbounds nuw %struct.pg_conn, ptr %46, i32 0, i32 121
  store i32 0, ptr %47, align 4
  store i32 0, ptr %3, align 4
  store i32 1, ptr %9, align 4
  br label %136

48:                                               ; preds = %35
  br label %49

49:                                               ; preds = %120, %118, %48
  %50 = load i32, ptr %5, align 4
  %51 = icmp sgt i32 %50, 0
  br i1 %51, label %52, label %121

52:                                               ; preds = %49
  call void @llvm.lifetime.start.p0(i64 4, ptr %10) #10
  %53 = load ptr, ptr %4, align 8
  %54 = load ptr, ptr %6, align 8
  %55 = load i32, ptr %5, align 4
  %56 = sext i32 %55 to i64
  %57 = call i64 @pqsecure_write(ptr noundef %53, ptr noundef %54, i64 noundef %56)
  %58 = trunc i64 %57 to i32
  store i32 %58, ptr %10, align 4
  %59 = load i32, ptr %10, align 4
  %60 = icmp slt i32 %59, 0
  br i1 %60, label %61, label %86

61:                                               ; preds = %52
  %62 = call ptr @__errno_location() #13
  %63 = load i32, ptr %62, align 4
  switch i32 %63, label %65 [
    i32 11, label %85
    i32 4, label %64
  ]

64:                                               ; preds = %61
  store i32 2, ptr %9, align 4
  br label %118, !llvm.loop !11

65:                                               ; preds = %61
  %66 = load ptr, ptr %4, align 8
  %67 = getelementptr inbounds nuw %struct.pg_conn, ptr %66, i32 0, i32 121
  store i32 0, ptr %67, align 4
  %68 = load ptr, ptr %4, align 8
  %69 = getelementptr inbounds nuw %struct.pg_conn, ptr %68, i32 0, i32 71
  %70 = load i32, ptr %69, align 8
  %71 = icmp ne i32 %70, -1
  br i1 %71, label %72, label %78

72:                                               ; preds = %65
  %73 = load ptr, ptr %4, align 8
  %74 = call i32 @pqReadData(ptr noundef %73)
  %75 = icmp slt i32 %74, 0
  br i1 %75, label %76, label %77

76:                                               ; preds = %72
  store i32 -1, ptr %3, align 4
  store i32 1, ptr %9, align 4
  br label %118

77:                                               ; preds = %72
  br label %78

78:                                               ; preds = %77, %65
  %79 = load ptr, ptr %4, align 8
  %80 = getelementptr inbounds nuw %struct.pg_conn, ptr %79, i32 0, i32 81
  %81 = load i8, ptr %80, align 1, !range !5, !noundef !6
  %82 = trunc i8 %81 to i1
  br i1 %82, label %83, label %84

83:                                               ; preds = %78
  store i32 0, ptr %3, align 4
  store i32 1, ptr %9, align 4
  br label %118

84:                                               ; preds = %78
  store i32 -1, ptr %3, align 4
  store i32 1, ptr %9, align 4
  br label %118

85:                                               ; preds = %61
  br label %97

86:                                               ; preds = %52
  %87 = load i32, ptr %10, align 4
  %88 = load ptr, ptr %6, align 8
  %89 = sext i32 %87 to i64
  %90 = getelementptr inbounds i8, ptr %88, i64 %89
  store ptr %90, ptr %6, align 8
  %91 = load i32, ptr %10, align 4
  %92 = load i32, ptr %5, align 4
  %93 = sub i32 %92, %91
  store i32 %93, ptr %5, align 4
  %94 = load i32, ptr %10, align 4
  %95 = load i32, ptr %7, align 4
  %96 = sub i32 %95, %94
  store i32 %96, ptr %7, align 4
  br label %97

97:                                               ; preds = %86, %85
  %98 = load i32, ptr %5, align 4
  %99 = icmp sgt i32 %98, 0
  br i1 %99, label %100, label %117

100:                                              ; preds = %97
  %101 = load ptr, ptr %4, align 8
  %102 = call i32 @pqReadData(ptr noundef %101)
  %103 = icmp slt i32 %102, 0
  br i1 %103, label %104, label %105

104:                                              ; preds = %100
  store i32 -1, ptr %8, align 4
  store i32 3, ptr %9, align 4
  br label %118

105:                                              ; preds = %100
  %106 = load ptr, ptr %4, align 8
  %107 = getelementptr inbounds nuw %struct.pg_conn, ptr %106, i32 0, i32 55
  %108 = load i8, ptr %107, align 1, !range !5, !noundef !6
  %109 = trunc i8 %108 to i1
  br i1 %109, label %110, label %111

110:                                              ; preds = %105
  store i32 1, ptr %8, align 4
  store i32 3, ptr %9, align 4
  br label %118

111:                                              ; preds = %105
  %112 = load ptr, ptr %4, align 8
  %113 = call i32 @pqWait(i32 noundef 1, i32 noundef 1, ptr noundef %112)
  %114 = icmp ne i32 %113, 0
  br i1 %114, label %115, label %116

115:                                              ; preds = %111
  store i32 -1, ptr %8, align 4
  store i32 3, ptr %9, align 4
  br label %118

116:                                              ; preds = %111
  br label %117

117:                                              ; preds = %116, %97
  store i32 0, ptr %9, align 4
  br label %118

118:                                              ; preds = %117, %115, %110, %104, %84, %83, %76, %64
  call void @llvm.lifetime.end.p0(i64 4, ptr %10) #10
  %119 = load i32, ptr %9, align 4
  switch i32 %119, label %136 [
    i32 0, label %120
    i32 2, label %49
    i32 3, label %121
  ]

120:                                              ; preds = %118
  br label %49, !llvm.loop !11

121:                                              ; preds = %118, %49
  %122 = load i32, ptr %7, align 4
  %123 = icmp sgt i32 %122, 0
  br i1 %123, label %124, label %131

124:                                              ; preds = %121
  %125 = load ptr, ptr %4, align 8
  %126 = getelementptr inbounds nuw %struct.pg_conn, ptr %125, i32 0, i32 119
  %127 = load ptr, ptr %126, align 8
  %128 = load ptr, ptr %6, align 8
  %129 = load i32, ptr %7, align 4
  %130 = sext i32 %129 to i64
  call void @llvm.memmove.p0.p0.i64(ptr align 1 %127, ptr align 1 %128, i64 %130, i1 false)
  br label %131

131:                                              ; preds = %124, %121
  %132 = load i32, ptr %7, align 4
  %133 = load ptr, ptr %4, align 8
  %134 = getelementptr inbounds nuw %struct.pg_conn, ptr %133, i32 0, i32 121
  store i32 %132, ptr %134, align 4
  %135 = load i32, ptr %8, align 4
  store i32 %135, ptr %3, align 4
  store i32 1, ptr %9, align 4
  br label %136

136:                                              ; preds = %131, %118, %40, %34, %32
  call void @llvm.lifetime.end.p0(i64 4, ptr %8) #10
  call void @llvm.lifetime.end.p0(i64 4, ptr %7) #10
  call void @llvm.lifetime.end.p0(i64 8, ptr %6) #10
  %137 = load i32, ptr %3, align 4
  ret i32 %137
}