; Function Attrs: nounwind uwtable
define internal fastcc range(i32 -1, 2) i32 @pqSendSome(ptr noundef %0, i32 noundef %1) unnamed_addr #2 {
  %3 = getelementptr inbounds nuw i8, ptr %0, i64 1024
  %4 = getelementptr inbounds nuw i8, ptr %0, i64 1036
  %5 = getelementptr inbounds nuw i8, ptr %0, i64 813
  %6 = load i8, ptr %5, align 1, !range !9, !noundef !10
  %7 = trunc nuw i8 %6 to i1
  br i1 %7, label %8, label %15

8:                                                ; preds = %2
  store i32 0, ptr %4, align 4
  %9 = getelementptr inbounds nuw i8, ptr %0, i64 520
  %10 = load i32, ptr %9, align 8
  %.not53 = icmp eq i32 %10, -1
  br i1 %.not53, label %14, label %11

11:                                               ; preds = %8
  %12 = tail call i32 @pqReadData(ptr noundef nonnull %0)
  %13 = icmp slt i32 %12, 0
  br i1 %13, label %pqWait.exit.thread74, label %14

14:                                               ; preds = %11, %8
  br label %pqWait.exit.thread74

15:                                               ; preds = %2
  %16 = load i32, ptr %4, align 4
  %17 = load ptr, ptr %3, align 8
  %18 = getelementptr inbounds nuw i8, ptr %0, i64 520
  %19 = load i32, ptr %18, align 8
  %20 = icmp eq i32 %19, -1
  br i1 %20, label %24, label %.preheader

.preheader:                                       ; preds = %15
  %21 = icmp sgt i32 %1, 0
  br i1 %21, label %.lr.ph, label %pqWait.exit.thread66

.lr.ph:                                           ; preds = %.preheader
  %22 = getelementptr inbounds nuw i8, ptr %0, i64 435
  br label %pqWait.exit.outer

pqWait.exit.outer:                                ; preds = %56, %.lr.ph
  %.04183.ph = phi i32 [ %.362, %56 ], [ %16, %.lr.ph ]
  %.04482.ph = phi ptr [ %.34760, %56 ], [ %17, %.lr.ph ]
  %.04881.ph = phi i32 [ %.25058, %56 ], [ %1, %.lr.ph ]
  %23 = zext nneg i32 %.04881.ph to i64
  br label %pqWait.exit

24:                                               ; preds = %15
  store i8 1, ptr %5, align 1
  %25 = tail call noalias dereferenceable_or_null(21) ptr @strdup(ptr noundef nonnull @.str.8) #19
  %26 = getelementptr inbounds nuw i8, ptr %0, i64 816
  store ptr %25, ptr %26, align 8
  store i32 0, ptr %4, align 4
  br label %pqWait.exit.thread74

pqWait.exit:                                      ; preds = %pqWait.exit.outer, %30
  %27 = tail call i64 @pqsecure_write(ptr noundef %0, ptr noundef %.04482.ph, i64 noundef %23) #19
  %28 = trunc i64 %27 to i32
  %29 = icmp slt i32 %28, 0
  br i1 %29, label %30, label %42

30:                                               ; preds = %pqWait.exit
  %31 = tail call ptr @__errno_location() #21
  %32 = load i32, ptr %31, align 4
  switch i32 %32, label %33 [
    i32 11, label %.thread
    i32 4, label %pqWait.exit
  ], !llvm.loop !11

33:                                               ; preds = %30
  store i32 0, ptr %4, align 4
  %34 = load i32, ptr %18, align 8
  %.not52 = icmp eq i32 %34, -1
  br i1 %.not52, label %38, label %35

35:                                               ; preds = %33
  %36 = tail call i32 @pqReadData(ptr noundef nonnull %0)
  %37 = icmp slt i32 %36, 0
  br i1 %37, label %pqWait.exit.thread74, label %38

38:                                               ; preds = %35, %33
  %39 = load i8, ptr %5, align 1, !range !9, !noundef !10
  %40 = xor i8 %39, 1
  %41 = zext nneg i8 %40 to i32
  %. = sub nsw i32 0, %41
  br label %pqWait.exit.thread74

42:                                               ; preds = %pqWait.exit
  %43 = and i64 %27, 2147483647
  %44 = getelementptr inbounds nuw i8, ptr %.04482.ph, i64 %43
  %45 = sub nsw i32 %.04881.ph, %28
  %46 = sub i32 %.04183.ph, %28
  %47 = icmp sgt i32 %45, 0
  br i1 %47, label %.thread, label %pqWait.exit.thread66

.thread:                                          ; preds = %30, %42
  %.362 = phi i32 [ %46, %42 ], [ %.04183.ph, %30 ]
  %.34760 = phi ptr [ %44, %42 ], [ %.04482.ph, %30 ]
  %.25058 = phi i32 [ %45, %42 ], [ %.04881.ph, %30 ]
  %48 = tail call i32 @pqReadData(ptr noundef %0)
  %49 = icmp slt i32 %48, 0
  br i1 %49, label %pqWait.exit.thread66, label %50

50:                                               ; preds = %.thread
  %51 = load i8, ptr %22, align 1, !range !9, !noundef !10
  %52 = trunc nuw i8 %51 to i1
  br i1 %52, label %pqWait.exit.thread66, label %53

53:                                               ; preds = %50
  %54 = tail call fastcc i32 @pqSocketCheck(ptr noundef nonnull %0, i32 noundef 1, i32 noundef 1, i64 noundef -1)
  %55 = icmp slt i32 %54, 0
  br i1 %55, label %pqWait.exit.thread66, label %56

56:                                               ; preds = %53
  %57 = icmp eq i32 %54, 0
  br i1 %57, label %58, label %pqWait.exit.outer

58:                                               ; preds = %56
  tail call void (ptr, ptr, ...) @libpq_append_conn_error(ptr noundef nonnull %0, ptr noundef nonnull @.str.6)
  br label %pqWait.exit.thread66

pqWait.exit.thread66:                             ; preds = %42, %.thread, %50, %53, %.preheader, %58
  %.145 = phi ptr [ %.34760, %58 ], [ %17, %.preheader ], [ %44, %42 ], [ %.34760, %.thread ], [ %.34760, %50 ], [ %.34760, %53 ]
  %.142 = phi i32 [ %.362, %58 ], [ %16, %.preheader ], [ %46, %42 ], [ %.362, %.thread ], [ %.362, %50 ], [ %.362, %53 ]
  %.139 = phi i32 [ -1, %58 ], [ 0, %.preheader ], [ 0, %42 ], [ -1, %.thread ], [ 1, %50 ], [ -1, %53 ]
  %59 = icmp sgt i32 %.142, 0
  br i1 %59, label %60, label %63

60:                                               ; preds = %pqWait.exit.thread66
  %61 = load ptr, ptr %3, align 8
  %62 = zext nneg i32 %.142 to i64
  tail call void @llvm.memmove.p0.p0.i64(ptr align 1 %61, ptr align 1 %.145, i64 %62, i1 false)
  br label %63

63:                                               ; preds = %60, %pqWait.exit.thread66
  store i32 %.142, ptr %4, align 4
  br label %pqWait.exit.thread74

pqWait.exit.thread74:                             ; preds = %38, %35, %11, %63, %24, %14
  %.0 = phi i32 [ 0, %14 ], [ 0, %24 ], [ %.139, %63 ], [ -1, %11 ], [ %., %38 ], [ -1, %35 ]
  ret i32 %.0
}